; ModuleID = '37/1109.c'
source_filename = "37/1109.c"
target datalayout = "e-m:e-p270:32:32-p271:32:32-p272:64:64-i64:64-f80:128-n8:16:32:64-S128"
target triple = "x86_64-pc-linux-gnu"

%struct.cha = type { i8, i32 }

@.str = private unnamed_addr constant [3 x i8] c"%d\00", align 1
@.str.1 = private unnamed_addr constant [4 x i8] c"%c\0A\00", align 1
@.str.2 = private unnamed_addr constant [4 x i8] c"no\0A\00", align 1

; Function Attrs: noinline nounwind uwtable
define dso_local i32 @main() #0 {
  %1 = alloca i32, align 4
  %2 = alloca i32, align 4
  %3 = alloca i32, align 4
  %4 = alloca i32, align 4
  %5 = alloca i32, align 4
  %6 = alloca i32, align 4
  %7 = alloca i32, align 4
  %8 = alloca i32, align 4
  %9 = alloca [10000 x i8], align 16
  %10 = alloca [26 x %struct.cha], align 16
  store i32 0, i32* %1, align 4
  store i32 1, i32* %3, align 4
  %11 = call i32 (i8*, ...) @__isoc99_scanf(i8* getelementptr inbounds ([3 x i8], [3 x i8]* @.str, i64 0, i64 0), i32* %2)
  %12 = getelementptr inbounds [10000 x i8], [10000 x i8]* %9, i64 0, i64 0
  %13 = call i32 (i8*, ...) bitcast (i32 (...)* @gets to i32 (i8*, ...)*)(i8* %12)
  store i32 0, i32* %4, align 4
  br label %14

14:                                               ; preds = %119, %0
  %15 = load i32, i32* %4, align 4
  %16 = load i32, i32* %2, align 4
  %17 = icmp slt i32 %15, %16
  br i1 %17, label %18, label %122

18:                                               ; preds = %14
  store i32 1, i32* %3, align 4
  %19 = getelementptr inbounds [10000 x i8], [10000 x i8]* %9, i64 0, i64 0
  %20 = call i32 (i8*, ...) bitcast (i32 (...)* @gets to i32 (i8*, ...)*)(i8* %19)
  %21 = getelementptr inbounds [10000 x i8], [10000 x i8]* %9, i64 0, i64 0
  %22 = load i8, i8* %21, align 16
  %23 = getelementptr inbounds [26 x %struct.cha], [26 x %struct.cha]* %10, i64 0, i64 0
  %24 = getelementptr inbounds %struct.cha, %struct.cha* %23, i32 0, i32 0
  store i8 %22, i8* %24, align 16
  %25 = getelementptr inbounds [26 x %struct.cha], [26 x %struct.cha]* %10, i64 0, i64 0
  %26 = getelementptr inbounds %struct.cha, %struct.cha* %25, i32 0, i32 1
  store i32 0, i32* %26, align 4
  %27 = getelementptr inbounds [10000 x i8], [10000 x i8]* %9, i64 0, i64 0
  %28 = call i64 @strlen(i8* %27) #3
  %29 = trunc i64 %28 to i32
  store i32 %29, i32* %7, align 4
  store i32 1, i32* %5, align 4
  br label %30

30:                                               ; preds = %84, %18
  %31 = load i32, i32* %5, align 4
  %32 = load i32, i32* %7, align 4
  %33 = icmp slt i32 %31, %32
  br i1 %33, label %34, label %87

34:                                               ; preds = %30
  store i32 0, i32* %8, align 4
  store i32 0, i32* %6, align 4
  br label %35

35:                                               ; preds = %62, %34
  %36 = load i32, i32* %6, align 4
  %37 = load i32, i32* %3, align 4
  %38 = icmp slt i32 %36, %37
  br i1 %38, label %39, label %65

39:                                               ; preds = %35
  %40 = load i32, i32* %6, align 4
  %41 = sext i32 %40 to i64
  %42 = getelementptr inbounds [26 x %struct.cha], [26 x %struct.cha]* %10, i64 0, i64 %41
  %43 = getelementptr inbounds %struct.cha, %struct.cha* %42, i32 0, i32 0
  %44 = load i8, i8* %43, align 8
  %45 = sext i8 %44 to i32
  %46 = load i32, i32* %5, align 4
  %47 = sext i32 %46 to i64
  %48 = getelementptr inbounds [10000 x i8], [10000 x i8]* %9, i64 0, i64 %47
  %49 = load i8, i8* %48, align 1
  %50 = sext i8 %49 to i32
  %51 = icmp eq i32 %45, %50
  br i1 %51, label %52, label %61

52:                                               ; preds = %39
  %53 = load i32, i32* %6, align 4
  %54 = sext i32 %53 to i64
  %55 = getelementptr inbounds [26 x %struct.cha], [26 x %struct.cha]* %10, i64 0, i64 %54
  %56 = getelementptr inbounds %struct.cha, %struct.cha* %55, i32 0, i32 1
  %57 = load i32, i32* %56, align 4
  %58 = add nsw i32 %57, 1
  store i32 %58, i32* %56, align 4
  %59 = load i32, i32* %8, align 4
  %60 = add nsw i32 %59, 1
  store i32 %60, i32* %8, align 4
  br label %61

61:                                               ; preds = %52, %39
  br label %62

62:                                               ; preds = %61
  %63 = load i32, i32* %6, align 4
  %64 = add nsw i32 %63, 1
  store i32 %64, i32* %6, align 4
  br label %35

65:                                               ; preds = %35
  %66 = load i32, i32* %8, align 4
  %67 = icmp eq i32 %66, 0
  br i1 %67, label %68, label %83

68:                                               ; preds = %65
  %69 = load i32, i32* %5, align 4
  %70 = sext i32 %69 to i64
  %71 = getelementptr inbounds [10000 x i8], [10000 x i8]* %9, i64 0, i64 %70
  %72 = load i8, i8* %71, align 1
  %73 = load i32, i32* %3, align 4
  %74 = sext i32 %73 to i64
  %75 = getelementptr inbounds [26 x %struct.cha], [26 x %struct.cha]* %10, i64 0, i64 %74
  %76 = getelementptr inbounds %struct.cha, %struct.cha* %75, i32 0, i32 0
  store i8 %72, i8* %76, align 8
  %77 = load i32, i32* %3, align 4
  %78 = sext i32 %77 to i64
  %79 = getelementptr inbounds [26 x %struct.cha], [26 x %struct.cha]* %10, i64 0, i64 %78
  %80 = getelementptr inbounds %struct.cha, %struct.cha* %79, i32 0, i32 1
  store i32 0, i32* %80, align 4
  %81 = load i32, i32* %3, align 4
  %82 = add nsw i32 %81, 1
  store i32 %82, i32* %3, align 4
  br label %83

83:                                               ; preds = %68, %65
  br label %84

84:                                               ; preds = %83
  %85 = load i32, i32* %5, align 4
  %86 = add nsw i32 %85, 1
  store i32 %86, i32* %5, align 4
  br label %30

87:                                               ; preds = %30
  store i32 0, i32* %8, align 4
  store i32 0, i32* %5, align 4
  br label %88

88:                                               ; preds = %110, %87
  %89 = load i32, i32* %5, align 4
  %90 = load i32, i32* %3, align 4
  %91 = icmp slt i32 %89, %90
  br i1 %91, label %92, label %113

92:                                               ; preds = %88
  %93 = load i32, i32* %5, align 4
  %94 = sext i32 %93 to i64
  %95 = getelementptr inbounds [26 x %struct.cha], [26 x %struct.cha]* %10, i64 0, i64 %94
  %96 = getelementptr inbounds %struct.cha, %struct.cha* %95, i32 0, i32 1
  %97 = load i32, i32* %96, align 4
  %98 = icmp eq i32 %97, 0
  br i1 %98, label %99, label %109

99:                                               ; preds = %92
  %100 = load i32, i32* %5, align 4
  %101 = sext i32 %100 to i64
  %102 = getelementptr inbounds [26 x %struct.cha], [26 x %struct.cha]* %10, i64 0, i64 %101
  %103 = getelementptr inbounds %struct.cha, %struct.cha* %102, i32 0, i32 0
  %104 = load i8, i8* %103, align 8
  %105 = sext i8 %104 to i32
  %106 = call i32 (i8*, ...) @printf(i8* getelementptr inbounds ([4 x i8], [4 x i8]* @.str.1, i64 0, i64 0), i32 %105)
  %107 = load i32, i32* %8, align 4
  %108 = add nsw i32 %107, 1
  store i32 %108, i32* %8, align 4
  br label %113

109:                                              ; preds = %92
  br label %110

110:                                              ; preds = %109
  %111 = load i32, i32* %5, align 4
  %112 = add nsw i32 %111, 1
  store i32 %112, i32* %5, align 4
  br label %88

113:                                              ; preds = %99, %88
  %114 = load i32, i32* %8, align 4
  %115 = icmp eq i32 %114, 0
  br i1 %115, label %116, label %118

116:                                              ; preds = %113
  %117 = call i32 (i8*, ...) @printf(i8* getelementptr inbounds ([4 x i8], [4 x i8]* @.str.2, i64 0, i64 0))
  br label %118

118:                                              ; preds = %116, %113
  br label %119

119:                                              ; preds = %118
  %120 = load i32, i32* %4, align 4
  %121 = add nsw i32 %120, 1
  store i32 %121, i32* %4, align 4
  br label %14

122:                                              ; preds = %14
  ret i32 0
}

declare dso_local i32 @__isoc99_scanf(i8*, ...) #1

declare dso_local i32 @gets(...) #1

; Function Attrs: nounwind readonly
declare dso_local i64 @strlen(i8*) #2

declare dso_local i32 @printf(i8*, ...) #1


!llvm.module.flags = !{!0}
!llvm.ident = !{!1}

!0 = !{i32 1, !"wchar_size", i32 4}
!1 = !{!"clang version 10.0.0-4ubuntu1 "}
